; Function Attrs: nounwind uwtable
define internal ptr @_codecs_utf_7_decode(ptr readnone captures(none) %0, ptr noundef readonly captures(none) %1, i64 noundef %2) #0 {
  %4 = alloca i64, align 8
  %5 = alloca %struct.Py_buffer, align 8
  %6 = alloca i64, align 8
  call void @llvm.lifetime.start.p0(i64 80, ptr nonnull %5) #5
  call void @llvm.memset.p0.i64(ptr noundef nonnull align 8 dereferenceable(80) %5, i8 0, i64 80, i1 false)
  %7 = add i64 %2, -1
  %or.cond = icmp ult i64 %7, 3
  br i1 %or.cond, label %10, label %8

8:                                                ; preds = %3
  %9 = tail call i32 @_PyArg_CheckPositional(ptr noundef nonnull @.str.11, i64 noundef %2, i64 noundef 1, i64 noundef 3) #5
  %.not = icmp eq i32 %9, 0
  br i1 %.not, label %50, label %10

10:                                               ; preds = %3, %8
  %11 = load ptr, ptr %1, align 8, !tbaa !22
  %12 = call i32 @PyObject_GetBuffer(ptr noundef %11, ptr noundef nonnull %5, i32 noundef 0) #5
  %.not28 = icmp eq i32 %12, 0
  br i1 %.not28, label %13, label %50

13:                                               ; preds = %10
  %14 = icmp slt i64 %2, 2
  br i1 %14, label %.thread39, label %15

15:                                               ; preds = %13
  %16 = getelementptr i8, ptr %1, i64 8
  %17 = load ptr, ptr %16, align 8, !tbaa !22
  %18 = icmp eq ptr %17, @_Py_NoneStruct
  br i1 %18, label %33, label %19

19:                                               ; preds = %15
  %20 = getelementptr i8, ptr %17, i64 8
  %.val = load ptr, ptr %20, align 8, !tbaa !4
  %21 = getelementptr i8, ptr %.val, i64 168
  %.val33 = load i64, ptr %21, align 8, !tbaa !10
  %22 = and i64 %.val33, 268435456
  %.not29 = icmp eq i64 %22, 0
  br i1 %.not29, label %32, label %23

23:                                               ; preds = %19
  call void @llvm.lifetime.start.p0(i64 8, ptr nonnull %6) #5
  %24 = call ptr @PyUnicode_AsUTF8AndSize(ptr noundef %17, ptr noundef nonnull %6) #5
  %25 = icmp eq ptr %24, null
  br i1 %25, label %.thread, label %26

26:                                               ; preds = %23
  %27 = call i64 @strlen(ptr noundef nonnull dereferenceable(1) %24) #6
  %28 = load i64, ptr %6, align 8, !tbaa !21
  %.not30 = icmp eq i64 %27, %28
  br i1 %.not30, label %31, label %29

29:                                               ; preds = %26
  %30 = load ptr, ptr @PyExc_ValueError, align 8, !tbaa !22
  call void @PyErr_SetString(ptr noundef %30, ptr noundef nonnull @.str.44) #5
  br label %.thread

.thread:                                          ; preds = %29, %23
  call void @llvm.lifetime.end.p0(i64 8, ptr nonnull %6) #5
  br label %50

31:                                               ; preds = %26
  call void @llvm.lifetime.end.p0(i64 8, ptr nonnull %6) #5
  br label %33

32:                                               ; preds = %19
  call void @_PyArg_BadArgument(ptr noundef nonnull @.str.11, ptr noundef nonnull @.str.52, ptr noundef nonnull @.str.53, ptr noundef %17) #5
  br label %50

33:                                               ; preds = %31, %15
  %.1 = phi ptr [ %24, %31 ], [ null, %15 ]
  %34 = icmp eq i64 %2, 2
  br i1 %34, label %.thread39, label %35

35:                                               ; preds = %33
  %36 = getelementptr i8, ptr %1, i64 16
  %37 = load ptr, ptr %36, align 8, !tbaa !22
  %38 = call i32 @PyObject_IsTrue(ptr noundef %37) #5
  %.fr = freeze i32 %38
  %39 = icmp slt i32 %.fr, 0
  br i1 %39, label %50, label %41

.thread39:                                        ; preds = %13, %33
  %.021.ph = phi ptr [ %.1, %33 ], [ null, %13 ]
  %.val3442 = load ptr, ptr %5, align 8, !tbaa !28
  %40 = getelementptr inbounds nuw i8, ptr %5, i64 16
  %.val3543 = load i64, ptr %40, align 8, !tbaa !31
  call void @llvm.lifetime.start.p0(i64 8, ptr nonnull %4) #5
  store i64 %.val3543, ptr %4, align 8, !tbaa !21
  br label %43

41:                                               ; preds = %35
  %.val34 = load ptr, ptr %5, align 8, !tbaa !28
  %42 = getelementptr inbounds nuw i8, ptr %5, i64 16
  %.val35 = load i64, ptr %42, align 8, !tbaa !31
  call void @llvm.lifetime.start.p0(i64 8, ptr nonnull %4) #5
  store i64 %.val35, ptr %4, align 8, !tbaa !21
  %.not.i = icmp eq i32 %.fr, 0
  %spec.select = select i1 %.not.i, ptr %4, ptr null
  br label %43

43:                                               ; preds = %41, %.thread39
  %.val3550 = phi i64 [ %.val3543, %.thread39 ], [ %.val35, %41 ]
  %.val3448 = phi ptr [ %.val3442, %.thread39 ], [ %.val34, %41 ]
  %.02146 = phi ptr [ %.021.ph, %.thread39 ], [ %.1, %41 ]
  %44 = phi ptr [ %4, %.thread39 ], [ %spec.select, %41 ]
  %45 = call ptr @PyUnicode_DecodeUTF7Stateful(ptr noundef %.val3448, i64 noundef %.val3550, ptr noundef %.02146, ptr noundef %44) #5
  %46 = icmp eq ptr %45, null
  br i1 %46, label %_codecs_utf_7_decode_impl.exit, label %47

47:                                               ; preds = %43
  %48 = load i64, ptr %4, align 8, !tbaa !21
  %49 = call ptr (ptr, ...) @Py_BuildValue(ptr noundef nonnull @.str.55, ptr noundef nonnull %45, i64 noundef %48) #5
  br label %_codecs_utf_7_decode_impl.exit

_codecs_utf_7_decode_impl.exit:                   ; preds = %43, %47
  %.0.i.i = phi ptr [ %49, %47 ], [ null, %43 ]
  call void @llvm.lifetime.end.p0(i64 8, ptr nonnull %4) #5
  br label %50

50:                                               ; preds = %.thread, %35, %10, %8, %_codecs_utf_7_decode_impl.exit, %32
  %.022 = phi ptr [ null, %10 ], [ %.0.i.i, %_codecs_utf_7_decode_impl.exit ], [ null, %35 ], [ null, %32 ], [ null, %8 ], [ null, %.thread ]
  %51 = getelementptr inbounds nuw i8, ptr %5, i64 8
  %52 = load ptr, ptr %51, align 8, !tbaa !32
  %.not31 = icmp eq ptr %52, null
  br i1 %.not31, label %54, label %53

53:                                               ; preds = %50
  call void @PyBuffer_Release(ptr noundef nonnull %5) #5
  br label %54

54:                                               ; preds = %50, %53
  call void @llvm.lifetime.end.p0(i64 80, ptr nonnull %5) #5
  ret ptr %.022
}